target datalayout = "e-m:e-p270:32:32-p271:32:32-p272:64:64-i64:64-i128:128-f80:128-n8:16:32:64-S128"
target triple = "x86_64-pc-linux-gnu"

%struct.Bus_Man_t_ = type { ptr, ptr, ptr, ptr, ptr, ptr, ptr, ptr, ptr, ptr, ptr, ptr }
%struct.SC_Cell_ = type { ptr, i32, i32, i32, i32, float, float, i32, i32, i32, %struct.Vec_Ptr_t_, i32, i32, ptr, ptr, ptr, ptr, i32, i32 }
%struct.Vec_Ptr_t_ = type { i32, i32, ptr }
%struct.Abc_Ntk_t_ = type { i32, i32, ptr, ptr, ptr, ptr, ptr, ptr, ptr, ptr, ptr, ptr, ptr, [11 x i32], i32, i32, i32, i32, ptr, i32, ptr, ptr, i32, i32, i32, double, i32, %struct.Vec_Int_t_, ptr, ptr, ptr, ptr, ptr, float, i32, ptr, ptr, ptr, ptr, ptr, ptr, ptr, ptr, ptr, ptr, ptr, ptr, ptr, ptr, ptr, ptr, ptr, ptr, ptr, ptr, ptr, ptr }
%struct.Vec_Int_t_ = type { i32, i32, ptr }
%struct.Vec_Flt_t_ = type { i32, i32, ptr }
%struct.SC_Lib_ = type { ptr, ptr, ptr, ptr, float, i32, float, i32, %struct.Vec_Ptr_t_, %struct.Vec_Ptr_t_, %struct.Vec_Ptr_t_, %struct.Vec_Ptr_t_, %struct.Vec_Ptr_t_, ptr, i32 }
%struct.Abc_Obj_t_ = type { ptr, ptr, i32, i32, %struct.Vec_Int_t_, %struct.Vec_Int_t_, %union.anon, %union.anon.0 }
%union.anon = type { ptr }
%union.anon.0 = type { ptr }
%struct.SC_Pin_ = type { ptr, i32, float, float, float, i32, i32, float, float, ptr, %struct.Vec_Wrd_t_, %struct.Vec_Ptr_t_ }
%struct.Vec_Wrd_t_ = type { i32, i32, ptr }

@.str.6 = private unnamed_addr constant [2 x i8] c"\0A\00", align 1
@.str.10 = private unnamed_addr constant [10 x i8] c"%s%7d :  \00", align 1
@.str.11 = private unnamed_addr constant [5 x i8] c" Inv\00", align 1
@.str.12 = private unnamed_addr constant [5 x i8] c"Node\00", align 1
@.str.13 = private unnamed_addr constant [10 x i8] c"%d/%2d   \00", align 1
@.str.14 = private unnamed_addr constant [6 x i8] c"%12s \00", align 1
@.str.15 = private unnamed_addr constant [12 x i8] c"(%2d/%2d)  \00", align 1
@.str.16 = private unnamed_addr constant [12 x i8] c"gain =%5d  \00", align 1
@.str.17 = private unnamed_addr constant [17 x i8] c"dept =%7.0f ps  \00", align 1

; Function Attrs: inlinehint nounwind uwtable
define internal ptr @SC_CellPin(ptr noundef %0, i32 noundef %1) #4 {
  %3 = alloca ptr, align 8
  %4 = alloca i32, align 4
  store ptr %0, ptr %3, align 8, !tbaa !92
  store i32 %1, ptr %4, align 4, !tbaa !58
  %5 = load ptr, ptr %3, align 8, !tbaa !92
  %6 = getelementptr inbounds nuw %struct.SC_Cell_, ptr %5, i32 0, i32 10
  %7 = load i32, ptr %4, align 4, !tbaa !58
  %8 = call ptr @Vec_PtrEntry(ptr noundef %6, i32 noundef %7)
  ret ptr %8
}

; Function Attrs: inlinehint nounwind uwtable
define internal ptr @Vec_PtrEntry(ptr noundef %0, i32 noundef %1) #4 {
  %3 = alloca ptr, align 8
  %4 = alloca i32, align 4
  store ptr %0, ptr %3, align 8, !tbaa !66
  store i32 %1, ptr %4, align 4, !tbaa !58
  %5 = load ptr, ptr %3, align 8, !tbaa !66
  %6 = getelementptr inbounds nuw %struct.Vec_Ptr_t_, ptr %5, i32 0, i32 2
  %7 = load ptr, ptr %6, align 8, !tbaa !69
  %8 = load i32, ptr %4, align 4, !tbaa !58
  %9 = sext i32 %8 to i64
  %10 = getelementptr inbounds ptr, ptr %7, i64 %9
  %11 = load ptr, ptr %10, align 8, !tbaa !88
  ret ptr %11
}

; Function Attrs: inlinehint nounwind uwtable
define internal i32 @Vec_IntEntry(ptr noundef %0, i32 noundef %1) #4 {
  %3 = alloca ptr, align 8
  %4 = alloca i32, align 4
  store ptr %0, ptr %3, align 8, !tbaa !121
  store i32 %1, ptr %4, align 4, !tbaa !58
  %5 = load ptr, ptr %3, align 8, !tbaa !121
  %6 = getelementptr inbounds nuw %struct.Vec_Int_t_, ptr %5, i32 0, i32 2
  %7 = load ptr, ptr %6, align 8, !tbaa !141
  %8 = load i32, ptr %4, align 4, !tbaa !58
  %9 = sext i32 %8 to i64
  %10 = getelementptr inbounds i32, ptr %7, i64 %9
  %11 = load i32, ptr %10, align 4, !tbaa !58
  ret i32 %11
}

; Function Attrs: inlinehint nounwind uwtable
define internal i32 @Abc_MaxInt(i32 noundef %0, i32 noundef %1) #4 {
  %3 = alloca i32, align 4
  %4 = alloca i32, align 4
  store i32 %0, ptr %3, align 4, !tbaa !58
  store i32 %1, ptr %4, align 4, !tbaa !58
  %5 = load i32, ptr %3, align 4, !tbaa !58
  %6 = load i32, ptr %4, align 4, !tbaa !58
  %7 = icmp sgt i32 %5, %6
  br i1 %7, label %8, label %10

8:                                                ; preds = %2
  %9 = load i32, ptr %3, align 4, !tbaa !58
  br label %12

10:                                               ; preds = %2
  %11 = load i32, ptr %4, align 4, !tbaa !58
  br label %12

12:                                               ; preds = %10, %8
  %13 = phi i32 [ %9, %8 ], [ %11, %10 ]
  ret i32 %13
}

; Function Attrs: inlinehint nounwind uwtable
define internal float @SC_CellPinCap(ptr noundef %0, i32 noundef %1) #4 {
  %3 = alloca ptr, align 8
  %4 = alloca i32, align 4
  store ptr %0, ptr %3, align 8, !tbaa !92
  store i32 %1, ptr %4, align 4, !tbaa !58
  %5 = load ptr, ptr %3, align 8, !tbaa !92
  %6 = load i32, ptr %4, align 4, !tbaa !58
  %7 = call ptr @SC_CellPin(ptr noundef %5, i32 noundef %6)
  %8 = getelementptr inbounds nuw %struct.SC_Pin_, ptr %7, i32 0, i32 3
  %9 = load float, ptr %8, align 8, !tbaa !93
  %10 = fpext float %9 to double
  %11 = load ptr, ptr %3, align 8, !tbaa !92
  %12 = load i32, ptr %4, align 4, !tbaa !58
  %13 = call ptr @SC_CellPin(ptr noundef %11, i32 noundef %12)
  %14 = getelementptr inbounds nuw %struct.SC_Pin_, ptr %13, i32 0, i32 4
  %15 = load float, ptr %14, align 4, !tbaa !97
  %16 = fpext float %15 to double
  %17 = fmul double 5.000000e-01, %16
  %18 = call double @llvm.fmuladd.f64(double 5.000000e-01, double %10, double %17)
  %19 = fptrunc double %18 to float
  ret float %19
}

; Function Attrs: inlinehint nounwind uwtable
define internal float @Vec_FltEntry(ptr noundef %0, i32 noundef %1) #4 {
  %3 = alloca ptr, align 8
  %4 = alloca i32, align 4
  store ptr %0, ptr %3, align 8, !tbaa !70
  store i32 %1, ptr %4, align 4, !tbaa !58
  %5 = load ptr, ptr %3, align 8, !tbaa !70
  %6 = getelementptr inbounds nuw %struct.Vec_Flt_t_, ptr %5, i32 0, i32 2
  %7 = load ptr, ptr %6, align 8, !tbaa !73
  %8 = load i32, ptr %4, align 4, !tbaa !58
  %9 = sext i32 %8 to i64
  %10 = getelementptr inbounds float, ptr %7, i64 %9
  %11 = load float, ptr %10, align 4, !tbaa !74
  ret float %11
}

; Function Attrs: inlinehint nounwind uwtable
define internal ptr @Bus_SclObjMan(ptr noundef %0) #4 {
  %2 = alloca ptr, align 8
  store ptr %0, ptr %2, align 8, !tbaa !60
  %3 = load ptr, ptr %2, align 8, !tbaa !60
  %4 = getelementptr inbounds nuw %struct.Abc_Obj_t_, ptr %3, i32 0, i32 0
  %5 = load ptr, ptr %4, align 8, !tbaa !86
  %6 = getelementptr inbounds nuw %struct.Abc_Ntk_t_, ptr %5, i32 0, i32 44
  %7 = load ptr, ptr %6, align 8, !tbaa !56
  ret ptr %7
}

; Function Attrs: inlinehint nounwind uwtable
define internal ptr @SC_LibCell(ptr noundef %0, i32 noundef %1) #4 {
  %3 = alloca ptr, align 8
  %4 = alloca i32, align 4
  store ptr %0, ptr %3, align 8, !tbaa !8
  store i32 %1, ptr %4, align 4, !tbaa !58
  %5 = load ptr, ptr %3, align 8, !tbaa !8
  %6 = getelementptr inbounds nuw %struct.SC_Lib_, ptr %5, i32 0, i32 11
  %7 = load i32, ptr %4, align 4, !tbaa !58
  %8 = call ptr @Vec_PtrEntry(ptr noundef %6, i32 noundef %7)
  ret ptr %8
}

; Function Attrs: inlinehint nounwind uwtable
define internal ptr @Abc_SclObjLib(ptr noundef %0) #4 {
  %2 = alloca ptr, align 8
  store ptr %0, ptr %2, align 8, !tbaa !60
  %3 = load ptr, ptr %2, align 8, !tbaa !60
  %4 = getelementptr inbounds nuw %struct.Abc_Obj_t_, ptr %3, i32 0, i32 0
  %5 = load ptr, ptr %4, align 8, !tbaa !86
  %6 = getelementptr inbounds nuw %struct.Abc_Ntk_t_, ptr %5, i32 0, i32 45
  %7 = load ptr, ptr %6, align 8, !tbaa !157
  ret ptr %7
}

; Function Attrs: inlinehint nounwind uwtable
define internal i32 @Abc_SclObjCellId(ptr noundef %0) #4 {
  %2 = alloca ptr, align 8
  store ptr %0, ptr %2, align 8, !tbaa !60
  %3 = load ptr, ptr %2, align 8, !tbaa !60
  %4 = getelementptr inbounds nuw %struct.Abc_Obj_t_, ptr %3, i32 0, i32 0
  %5 = load ptr, ptr %4, align 8, !tbaa !86
  %6 = getelementptr inbounds nuw %struct.Abc_Ntk_t_, ptr %5, i32 0, i32 46
  %7 = load ptr, ptr %6, align 8, !tbaa !118
  %8 = load ptr, ptr %2, align 8, !tbaa !60
  %9 = call i32 @Abc_ObjId(ptr noundef %8)
  %10 = call i32 @Vec_IntEntry(ptr noundef %7, i32 noundef %9)
  ret i32 %10
}

; Function Attrs: inlinehint nounwind uwtable
define internal float @Bus_SclObjDept(ptr noundef %0) #4 {
  %2 = alloca ptr, align 8
  store ptr %0, ptr %2, align 8, !tbaa !60
  %3 = load ptr, ptr %2, align 8, !tbaa !60
  %4 = call ptr @Bus_SclObjMan(ptr noundef %3)
  %5 = getelementptr inbounds nuw %struct.Bus_Man_t_, ptr %4, i32 0, i32 10
  %6 = load ptr, ptr %5, align 8, !tbaa !55
  %7 = load ptr, ptr %2, align 8, !tbaa !60
  %8 = call i32 @Abc_ObjId(ptr noundef %7)
  %9 = call float @Vec_FltEntry(ptr noundef %6, i32 noundef %8)
  ret float %9
}

; Function Attrs: inlinehint nounwind uwtable
define internal float @SC_CellPinCapAve(ptr noundef %0) #4 {
  %2 = alloca ptr, align 8
  %3 = alloca i32, align 4
  %4 = alloca float, align 4
  store ptr %0, ptr %2, align 8, !tbaa !92
  call void @llvm.lifetime.start.p0(i64 4, ptr %3) #12
  call void @llvm.lifetime.start.p0(i64 4, ptr %4) #12
  store float 0.000000e+00, ptr %4, align 4, !tbaa !74
  store i32 0, ptr %3, align 4, !tbaa !58
  br label %5

5:                                                ; preds = %17, %1
  %6 = load i32, ptr %3, align 4, !tbaa !58
  %7 = load ptr, ptr %2, align 8, !tbaa !92
  %8 = getelementptr inbounds nuw %struct.SC_Cell_, ptr %7, i32 0, i32 11
  %9 = load i32, ptr %8, align 8, !tbaa !113
  %10 = icmp slt i32 %6, %9
  br i1 %10, label %11, label %20

11:                                               ; preds = %5
  %12 = load ptr, ptr %2, align 8, !tbaa !92
  %13 = load i32, ptr %3, align 4, !tbaa !58
  %14 = call float @SC_CellPinCap(ptr noundef %12, i32 noundef %13)
  %15 = load float, ptr %4, align 4, !tbaa !74
  %16 = fadd float %15, %14
  store float %16, ptr %4, align 4, !tbaa !74
  br label %17

17:                                               ; preds = %11
  %18 = load i32, ptr %3, align 4, !tbaa !58
  %19 = add nsw i32 %18, 1
  store i32 %19, ptr %3, align 4, !tbaa !58
  br label %5, !llvm.loop !114

20:                                               ; preds = %5
  %21 = load float, ptr %4, align 4, !tbaa !74
  %22 = load ptr, ptr %2, align 8, !tbaa !92
  %23 = getelementptr inbounds nuw %struct.SC_Cell_, ptr %22, i32 0, i32 11
  %24 = load i32, ptr %23, align 8, !tbaa !113
  %25 = call i32 @Abc_MaxInt(i32 noundef 1, i32 noundef %24)
  %26 = sitofp i32 %25 to float
  %27 = fdiv float %21, %26
  call void @llvm.lifetime.end.p0(i64 4, ptr %4) #12
  call void @llvm.lifetime.end.p0(i64 4, ptr %3) #12
  ret float %27
}

; Function Attrs: inlinehint nounwind uwtable
define internal float @Bus_SclObjLoad(ptr noundef %0) #4 {
  %2 = alloca ptr, align 8
  store ptr %0, ptr %2, align 8, !tbaa !60
  %3 = load ptr, ptr %2, align 8, !tbaa !60
  %4 = call ptr @Bus_SclObjMan(ptr noundef %3)
  %5 = getelementptr inbounds nuw %struct.Bus_Man_t_, ptr %4, i32 0, i32 9
  %6 = load ptr, ptr %5, align 8, !tbaa !54
  %7 = load ptr, ptr %2, align 8, !tbaa !60
  %8 = call i32 @Abc_ObjId(ptr noundef %7)
  %9 = call float @Vec_FltEntry(ptr noundef %6, i32 noundef %8)
  ret float %9
}

; Function Attrs: inlinehint nounwind uwtable
define internal i32 @Abc_ObjFanoutNum(ptr noundef %0) #4 {
  %2 = alloca ptr, align 8
  store ptr %0, ptr %2, align 8, !tbaa !60
  %3 = load ptr, ptr %2, align 8, !tbaa !60
  %4 = getelementptr inbounds nuw %struct.Abc_Obj_t_, ptr %3, i32 0, i32 5
  %5 = getelementptr inbounds nuw %struct.Vec_Int_t_, ptr %4, i32 0, i32 1
  %6 = load i32, ptr %5, align 4, !tbaa !84
  ret i32 %6
}

; Function Attrs: inlinehint nounwind uwtable
define internal i32 @Abc_ObjId(ptr noundef %0) #4 {
  %2 = alloca ptr, align 8
  store ptr %0, ptr %2, align 8, !tbaa !60
  %3 = load ptr, ptr %2, align 8, !tbaa !60
  %4 = getelementptr inbounds nuw %struct.Abc_Obj_t_, ptr %3, i32 0, i32 2
  %5 = load i32, ptr %4, align 8, !tbaa !101
  ret i32 %5
}

; Function Attrs: inlinehint nounwind uwtable
define internal i32 @Abc_ObjFaninNum(ptr noundef %0) #4 {
  %2 = alloca ptr, align 8
  store ptr %0, ptr %2, align 8, !tbaa !60
  %3 = load ptr, ptr %2, align 8, !tbaa !60
  %4 = getelementptr inbounds nuw %struct.Abc_Obj_t_, ptr %3, i32 0, i32 4
  %5 = getelementptr inbounds nuw %struct.Vec_Int_t_, ptr %4, i32 0, i32 1
  %6 = load i32, ptr %5, align 4, !tbaa !112
  ret i32 %6
}

; Function Attrs: inlinehint nounwind uwtable
define internal ptr @Abc_SclObjCell(ptr noundef %0) #4 {
  %2 = alloca ptr, align 8
  %3 = alloca i32, align 4
  store ptr %0, ptr %2, align 8, !tbaa !60
  call void @llvm.lifetime.start.p0(i64 4, ptr %3) #12
  %4 = load ptr, ptr %2, align 8, !tbaa !60
  %5 = call i32 @Abc_SclObjCellId(ptr noundef %4)
  store i32 %5, ptr %3, align 4, !tbaa !58
  %6 = load i32, ptr %3, align 4, !tbaa !58
  %7 = icmp eq i32 %6, -1
  br i1 %7, label %8, label %9

8:                                                ; preds = %1
  br label %14

9:                                                ; preds = %1
  %10 = load ptr, ptr %2, align 8, !tbaa !60
  %11 = call ptr @Abc_SclObjLib(ptr noundef %10)
  %12 = load i32, ptr %3, align 4, !tbaa !58
  %13 = call ptr @SC_LibCell(ptr noundef %11, i32 noundef %12)
  br label %14

14:                                               ; preds = %9, %8
  %15 = phi ptr [ null, %8 ], [ %13, %9 ]
  call void @llvm.lifetime.end.p0(i64 4, ptr %3) #12
  ret ptr %15
}

; Function Attrs: nounwind uwtable
define void @Abc_SclOneNodePrint(ptr noundef %0, ptr noundef %1) #0 {
  %3 = alloca ptr, align 8
  %4 = alloca ptr, align 8
  %5 = alloca ptr, align 8
  store ptr %0, ptr %3, align 8, !tbaa !12
  store ptr %1, ptr %4, align 8, !tbaa !60
  call void @llvm.lifetime.start.p0(i64 8, ptr %5) #12
  %6 = load ptr, ptr %4, align 8, !tbaa !60
  %7 = call ptr @Abc_SclObjCell(ptr noundef %6)
  store ptr %7, ptr %5, align 8, !tbaa !92
  %8 = load ptr, ptr %4, align 8, !tbaa !60
  %9 = call i32 @Abc_ObjFaninNum(ptr noundef %8)
  %10 = icmp eq i32 %9, 0
  %11 = select i1 %10, ptr @.str.11, ptr @.str.12
  %12 = load ptr, ptr %4, align 8, !tbaa !60
  %13 = call i32 @Abc_ObjId(ptr noundef %12)
  %14 = call i32 (ptr, ...) @printf(ptr noundef @.str.10, ptr noundef %11, i32 noundef %13)
  %15 = load ptr, ptr %4, align 8, !tbaa !60
  %16 = call i32 @Abc_ObjFaninNum(ptr noundef %15)
  %17 = icmp ne i32 %16, 0
  br i1 %17, label %18, label %21

18:                                               ; preds = %2
  %19 = load ptr, ptr %4, align 8, !tbaa !60
  %20 = call i32 @Abc_ObjFaninNum(ptr noundef %19)
  br label %22

21:                                               ; preds = %2
  br label %22

22:                                               ; preds = %21, %18
  %23 = phi i32 [ %20, %18 ], [ 1, %21 ]
  %24 = load ptr, ptr %4, align 8, !tbaa !60
  %25 = call i32 @Abc_ObjFanoutNum(ptr noundef %24)
  %26 = call i32 (ptr, ...) @printf(ptr noundef @.str.13, i32 noundef %23, i32 noundef %25)
  %27 = load ptr, ptr %5, align 8, !tbaa !92
  %28 = getelementptr inbounds nuw %struct.SC_Cell_, ptr %27, i32 0, i32 0
  %29 = load ptr, ptr %28, align 8, !tbaa !109
  %30 = call i32 (ptr, ...) @printf(ptr noundef @.str.14, ptr noundef %29)
  %31 = load ptr, ptr %5, align 8, !tbaa !92
  %32 = getelementptr inbounds nuw %struct.SC_Cell_, ptr %31, i32 0, i32 17
  %33 = load i32, ptr %32, align 8, !tbaa !110
  %34 = load ptr, ptr %5, align 8, !tbaa !92
  %35 = getelementptr inbounds nuw %struct.SC_Cell_, ptr %34, i32 0, i32 18
  %36 = load i32, ptr %35, align 4, !tbaa !111
  %37 = call i32 (ptr, ...) @printf(ptr noundef @.str.15, i32 noundef %33, i32 noundef %36)
  %38 = load ptr, ptr %4, align 8, !tbaa !60
  %39 = call float @Bus_SclObjLoad(ptr noundef %38)
  %40 = fpext float %39 to double
  %41 = fmul double 1.000000e+02, %40
  %42 = load ptr, ptr %5, align 8, !tbaa !92
  %43 = call float @SC_CellPinCapAve(ptr noundef %42)
  %44 = fpext float %43 to double
  %45 = fdiv double %41, %44
  %46 = fptosi double %45 to i32
  %47 = call i32 (ptr, ...) @printf(ptr noundef @.str.16, i32 noundef %46)
  %48 = load ptr, ptr %4, align 8, !tbaa !60
  %49 = call float @Bus_SclObjDept(ptr noundef %48)
  %50 = fpext float %49 to double
  %51 = call i32 (ptr, ...) @printf(ptr noundef @.str.17, double noundef %50)
  %52 = call i32 (ptr, ...) @printf(ptr noundef @.str.6)
  call void @llvm.lifetime.end.p0(i64 8, ptr %5) #12
  ret void
}