; Function Attrs: nofree nounwind uwtable
define void @Abc_SclOneNodePrint(ptr readnone captures(none) %0, ptr noundef readonly captures(none) %1) local_unnamed_addr #8 {
  %.val15 = load ptr, ptr %1, align 8, !tbaa !48
  %3 = getelementptr i8, ptr %1, i64 16
  %.val16 = load i32, ptr %3, align 8, !tbaa !51
  %4 = getelementptr i8, ptr %.val15, i64 376
  %.val.val.i = load ptr, ptr %4, align 8, !tbaa !52
  %5 = getelementptr i8, ptr %.val.val.i, i64 8
  %.val.val.val.i = load ptr, ptr %5, align 8, !tbaa !53
  %6 = sext i32 %.val16 to i64
  %7 = getelementptr inbounds i32, ptr %.val.val.val.i, i64 %6
  %8 = load i32, ptr %7, align 4, !tbaa !54
  %9 = icmp eq i32 %8, -1
  br i1 %9, label %Abc_SclObjCell.exit, label %10

10:                                               ; preds = %2
  %11 = getelementptr i8, ptr %.val15, i64 368
  %.val4.val.i = load ptr, ptr %11, align 8, !tbaa !55
  %12 = getelementptr i8, ptr %.val4.val.i, i64 104
  %.val5.i = load ptr, ptr %12, align 8, !tbaa !43
  %13 = sext i32 %8 to i64
  %14 = getelementptr inbounds ptr, ptr %.val5.i, i64 %13
  %15 = load ptr, ptr %14, align 8, !tbaa !44
  br label %Abc_SclObjCell.exit

Abc_SclObjCell.exit:                              ; preds = %2, %10
  %16 = phi ptr [ %15, %10 ], [ null, %2 ]
  %17 = getelementptr i8, ptr %1, i64 28
  %.val = load i32, ptr %17, align 4, !tbaa !45
  %18 = icmp eq i32 %.val, 0
  %19 = select i1 %18, ptr @.str.11, ptr @.str.12
  %20 = tail call i32 (ptr, ...) @printf(ptr noundef nonnull dereferenceable(1) @.str.10, ptr noundef nonnull %19, i32 noundef %.val16)
  %.val12 = load i32, ptr %17, align 4, !tbaa !45
  %spec.select = tail call i32 @llvm.umax.i32(i32 %.val12, i32 1)
  %21 = getelementptr i8, ptr %1, i64 44
  %.val17 = load i32, ptr %21, align 4, !tbaa !80
  %22 = tail call i32 (ptr, ...) @printf(ptr noundef nonnull dereferenceable(1) @.str.13, i32 noundef %spec.select, i32 noundef %.val17)
  %23 = load ptr, ptr %16, align 8, !tbaa !103
  %24 = tail call i32 (ptr, ...) @printf(ptr noundef nonnull dereferenceable(1) @.str.14, ptr noundef %23)
  %25 = getelementptr inbounds nuw i8, ptr %16, i64 104
  %26 = load i32, ptr %25, align 8, !tbaa !104
  %27 = getelementptr inbounds nuw i8, ptr %16, i64 108
  %28 = load i32, ptr %27, align 4, !tbaa !105
  %29 = tail call i32 (ptr, ...) @printf(ptr noundef nonnull dereferenceable(1) @.str.15, i32 noundef %26, i32 noundef %28)
  %.val20 = load ptr, ptr %1, align 8, !tbaa !48
  %.val21 = load i32, ptr %3, align 8, !tbaa !51
  %30 = getelementptr i8, ptr %.val20, i64 360
  %.val20.val = load ptr, ptr %30, align 8, !tbaa !74
  %31 = getelementptr i8, ptr %.val20.val, i64 72
  %.val20.val.val = load ptr, ptr %31, align 8, !tbaa !71
  %32 = getelementptr i8, ptr %.val20.val.val, i64 8
  %.val20.val.val.val = load ptr, ptr %32, align 8, !tbaa !68
  %33 = sext i32 %.val21 to i64
  %34 = getelementptr inbounds float, ptr %.val20.val.val.val, i64 %33
  %35 = load float, ptr %34, align 4, !tbaa !73
  %36 = getelementptr inbounds nuw i8, ptr %16, i64 64
  %37 = load i32, ptr %36, align 8, !tbaa !83
  %38 = icmp sgt i32 %37, 0
  br i1 %38, label %.lr.ph.i, label %SC_CellPinCapAve.exit

.lr.ph.i:                                         ; preds = %Abc_SclObjCell.exit
  %39 = getelementptr i8, ptr %16, i64 56
  %.val.i = load ptr, ptr %39, align 8, !tbaa !43
  %wide.trip.count.i = zext nneg i32 %37 to i64
  br label %40

40:                                               ; preds = %40, %.lr.ph.i
  %indvars.iv.i = phi i64 [ 0, %.lr.ph.i ], [ %indvars.iv.next.i, %40 ]
  %.010.i = phi float [ 0.000000e+00, %.lr.ph.i ], [ %52, %40 ]
  %41 = getelementptr inbounds nuw ptr, ptr %.val.i, i64 %indvars.iv.i
  %42 = load ptr, ptr %41, align 8, !tbaa !44
  %43 = getelementptr inbounds nuw i8, ptr %42, i64 16
  %44 = load float, ptr %43, align 8, !tbaa !88
  %45 = fpext float %44 to double
  %46 = getelementptr inbounds nuw i8, ptr %42, i64 20
  %47 = load float, ptr %46, align 4, !tbaa !92
  %48 = fpext float %47 to double
  %49 = fmul double %48, 5.000000e-01
  %50 = tail call double @llvm.fmuladd.f64(double %45, double 5.000000e-01, double %49)
  %51 = fptrunc double %50 to float
  %52 = fadd float %.010.i, %51
  %indvars.iv.next.i = add nuw nsw i64 %indvars.iv.i, 1
  %exitcond.not.i = icmp eq i64 %indvars.iv.next.i, %wide.trip.count.i
  br i1 %exitcond.not.i, label %SC_CellPinCapAve.exit, label %40, !llvm.loop !106

SC_CellPinCapAve.exit:                            ; preds = %40, %Abc_SclObjCell.exit
  %.0.lcssa.i = phi float [ 0.000000e+00, %Abc_SclObjCell.exit ], [ %52, %40 ]
  %53 = fpext float %35 to double
  %54 = fmul double %53, 1.000000e+02
  %55 = tail call noundef i32 @llvm.smax.i32(i32 %37, i32 1)
  %56 = uitofp nneg i32 %55 to float
  %57 = fdiv float %.0.lcssa.i, %56
  %58 = fpext float %57 to double
  %59 = fdiv double %54, %58
  %60 = fptosi double %59 to i32
  %61 = tail call i32 (ptr, ...) @printf(ptr noundef nonnull dereferenceable(1) @.str.16, i32 noundef %60)
  %.val18 = load ptr, ptr %1, align 8, !tbaa !48
  %.val19 = load i32, ptr %3, align 8, !tbaa !51
  %62 = getelementptr i8, ptr %.val18, i64 360
  %.val18.val = load ptr, ptr %62, align 8, !tbaa !74
  %63 = getelementptr i8, ptr %.val18.val, i64 80
  %.val18.val.val = load ptr, ptr %63, align 8, !tbaa !72
  %64 = getelementptr i8, ptr %.val18.val.val, i64 8
  %.val18.val.val.val = load ptr, ptr %64, align 8, !tbaa !68
  %65 = sext i32 %.val19 to i64
  %66 = getelementptr inbounds float, ptr %.val18.val.val.val, i64 %65
  %67 = load float, ptr %66, align 4, !tbaa !73
  %68 = fpext float %67 to double
  %69 = tail call i32 (ptr, ...) @printf(ptr noundef nonnull dereferenceable(1) @.str.17, double noundef %68)
  %putchar = tail call i32 @putchar(i32 10)
  ret void
}